; Function Attrs: mustprogress uwtable
define dso_local void @_ZN4Luau10Normalizer9negateAllERKNS_7TypeIdsE(ptr dead_on_unwind noalias writable sret(%"class.Luau::TypeIds") align 8 initializes((0, 32), (40, 72)) %0, ptr noundef nonnull align 8 dereferenceable(337) %1, ptr noundef nonnull readonly align 8 captures(none) dereferenceable(72) %2) local_unnamed_addr #4 align 2 personality ptr @__gxx_personality_v0 {
  %4 = getelementptr inbounds nuw i8, ptr %0, i64 40
  tail call void @llvm.memset.p0.i64(ptr noundef nonnull align 8 dereferenceable(72) %0, i8 0, i64 32, i1 false)
  tail call void @llvm.memset.p0.i64(ptr noundef nonnull align 8 dereferenceable(32) %4, i8 0, i64 32, i1 false)
  %5 = getelementptr inbounds nuw i8, ptr %2, i64 40
  %6 = load ptr, ptr %5, align 8, !tbaa !49
  %7 = getelementptr inbounds nuw i8, ptr %2, i64 48
  %8 = load ptr, ptr %7, align 8, !tbaa !49
  %.not10 = icmp eq ptr %6, %8
  br i1 %.not10, label %._crit_edge, label %.lr.ph

._crit_edge:                                      ; preds = %12, %3
  ret void

.lr.ph:                                           ; preds = %3, %12
  %.sroa.07.011 = phi ptr [ %13, %12 ], [ %6, %3 ]
  %9 = load ptr, ptr %.sroa.07.011, align 8, !tbaa !19
  %10 = invoke noundef ptr @_ZN4Luau10Normalizer6negateEPKNS_4TypeE(ptr noundef nonnull align 8 dereferenceable(337) %1, ptr noundef %9)
          to label %11 unwind label %14

11:                                               ; preds = %.lr.ph
  invoke void @_ZN4Luau7TypeIds6insertEPKNS_4TypeE(ptr noundef nonnull align 8 dereferenceable(72) %0, ptr noundef %10)
          to label %12 unwind label %14

12:                                               ; preds = %11
  %13 = getelementptr inbounds nuw i8, ptr %.sroa.07.011, i64 8
  %.not = icmp eq ptr %13, %8
  br i1 %.not, label %._crit_edge, label %.lr.ph

14:                                               ; preds = %11, %.lr.ph
  %15 = landingpad { ptr, i32 }
          cleanup
  tail call void @_ZN4Luau7TypeIdsD2Ev(ptr noundef nonnull align 8 dereferenceable(72) %0) #32
  resume { ptr, i32 } %15
}